(lp1
(lp2
I5
aI0
aI0
aI0
aa(lp3
I13
aI0
aI0
aI2
aa(lp4
I6
aI0
aI0
aI0
aa(lp5
I10
aI0
aI0
aI0
aa(lp6
I6
aI0
aI0
aI0
aa(lp7
I4
aI0
aI0
aI0
aa(lp8
I6
aI0
aI0
aI0
aa(lp9
I7
aI0
aI0
aI0
aa(lp10
I11
aI0
aI0
aI0
aa(lp11
I5
aI0
aI0
aI0
aa(lp12
I8
aI0
aI0
aI0
aa(lp13
I6
aI0
aI0
aI0
aa(lp14
I7
aI0
aI0
aI0
aa(lp15
I5
aI0
aI0
aI0
aa(lp16
I4
aI0
aI0
aI0
aa(lp17
I3
aI0
aI0
aI0
aa(lp18
I8
aI0
aI0
aI0
aa(lp19
I8
aI0
aI0
aI0
aa(lp20
I9
aI0
aI0
aI0
aa(lp21
I8
aI0
aI0
aI0
aa(lp22
I7
aI0
aI0
aI0
aa(lp23
I2
aI0
aI0
aI0
aa(lp24
I4
aI0
aI0
aI0
aa(lp25
I10
aI0
aI0
aI2
aa(lp26
I9
aI0
aI0
aI0
aa(lp27
I7
aI0
aI0
aI0
aa(lp28
I7
aI0
aI0
aI0
aa(lp29
I4
aI0
aI0
aI0
aa(lp30
I6
aI0
aI0
aI0
aa(lp31
I8
aI0
aI0
aI0
aa(lp32
I8
aI0
aI0
aI0
aa(lp33
I6
aI0
aI0
aI0
aa(lp34
I7
aI0
aI0
aI0
aa(lp35
I9
aI0
aI0
aI0
aa(lp36
I6
aI0
aI0
aI0
aa(lp37
I4
aI0
aI0
aI0
aa(lp38
I5
aI0
aI0
aI0
aa(lp39
I9
aI0
aI0
aI0
aa(lp40
I3
aI0
aI0
aI0
aa(lp41
I8
aI0
aI0
aI0
aa(lp42
I10
aI0
aI0
aI0
aa(lp43
I9
aI0
aI0
aI0
aa(lp44
I3
aI0
aI0
aI0
aa(lp45
I7
aI0
aI0
aI0
aa(lp46
I4
aI0
aI0
aI0
aa(lp47
I16
aI0
aI0
aI0
aa(lp48
I8
aI0
aI0
aI0
aa(lp49
I4
aI0
aI0
aI0
aa(lp50
I5
aI0
aI0
aI0
aa(lp51
I3
aI0
aI0
aI0
aa(lp52
I4
aI0
aI0
aI0
aa(lp53
I3
aI0
aI0
aI0
aa(lp54
I10
aI0
aI0
aI4
aa(lp55
I5
aI0
aI0
aI0
aa(lp56
I3
aI0
aI0
aI0
aa(lp57
I4
aI0
aI0
aI0
aa(lp58
I8
aI0
aI0
aI0
aa(lp59
I6
aI0
aI0
aI0
aa(lp60
I3
aI0
aI0
aI0
aa(lp61
I2
aI0
aI0
aI0
aa(lp62
I7
aI0
aI0
aI0
aa(lp63
I6
aI0
aI0
aI0
aa(lp64
I8
aI0
aI0
aI0
aa(lp65
I7
aI0
aI0
aI0
aa(lp66
I8
aI0
aI0
aI0
aa(lp67
I3
aI0
aI0
aI0
aa(lp68
I5
aI0
aI0
aI0
aa(lp69
I5
aI0
aI0
aI0
aa(lp70
I6
aI0
aI0
aI0
aa(lp71
I2
aI0
aI0
aI0
aa(lp72
I8
aI0
aI0
aI0
aa(lp73
I2
aI0
aI0
aI0
aa(lp74
I10
aI0
aI0
aI0
aa(lp75
I4
aI0
aI0
aI0
aa(lp76
I5
aI0
aI0
aI0
aa(lp77
I11
aI0
aI0
aI4
aa(lp78
I5
aI0
aI0
aI0
aa(lp79
I6
aI0
aI0
aI0
aa(lp80
I11
aI0
aI0
aI0
aa(lp81
I5
aI0
aI0
aI0
aa(lp82
I6
aI0
aI0
aI0
aa(lp83
I7
aI0
aI0
aI0
aa(lp84
I5
aI0
aI0
aI0
aa(lp85
I5
aI0
aI0
aI0
aa(lp86
I5
aI0
aI0
aI0
aa(lp87
I12
aI0
aI0
aI0
aa(lp88
I3
aI0
aI0
aI0
aa(lp89
I7
aI0
aI0
aI0
aa(lp90
I10
aI0
aI0
aI0
aa(lp91
I6
aI0
aI0
aI0
aa(lp92
I8
aI0
aI0
aI0
aa(lp93
I6
aI0
aI0
aI0
aa(lp94
I7
aI0
aI0
aI0
aa(lp95
I8
aI0
aI0
aI0
aa(lp96
I4
aI0
aI0
aI0
aa(lp97
I3
aI0
aI0
aI0
aa(lp98
I2
aI0
aI0
aI0
aa(lp99
I8
aI0
aI0
aI0
aa(lp100
I8
aI0
aI0
aI0
aa(lp101
I4
aI0
aI0
aI0
aa(lp102
I8
aI0
aI0
aI0
aa(lp103
I11
aI0
aI0
aI0
aa(lp104
I7
aI0
aI0
aI0
aa(lp105
I6
aI0
aI0
aI0
aa(lp106
I9
aI0
aI0
aI0
aa(lp107
I5
aI0
aI0
aI0
aa(lp108
I2
aI0
aI0
aI0
aa(lp109
I8
aI0
aI0
aI0
aa(lp110
I7
aI0
aI0
aI0
aa(lp111
I8
aI0
aI0
aI0
aa(lp112
I6
aI0
aI0
aI0
aa(lp113
I6
aI0
aI0
aI0
aa(lp114
I3
aI0
aI0
aI0
aa(lp115
I17
aI0
aI0
aI0
aa(lp116
I3
aI0
aI0
aI0
aa(lp117
I2
aI0
aI0
aI0
aa(lp118
I4
aI0
aI0
aI0
aa(lp119
I9
aI0
aI0
aI0
aa(lp120
I9
aI0
aI0
aI2
aa(lp121
I7
aI0
aI0
aI0
aa(lp122
I4
aI0
aI0
aI0
aa(lp123
I7
aI0
aI0
aI0
aa(lp124
I8
aI0
aI0
aI0
aa(lp125
I7
aI0
aI0
aI0
aa(lp126
I4
aI0
aI0
aI0
aa(lp127
I4
aI0
aI0
aI0
aa(lp128
I7
aI0
aI0
aI0
aa(lp129
I4
aI0
aI0
aI0
aa(lp130
I8
aI0
aI0
aI0
aa(lp131
I6
aI0
aI0
aI0
aa(lp132
I3
aI0
aI0
aI0
aa(lp133
I3
aI0
aI0
aI0
aa(lp134
I5
aI0
aI0
aI0
aa(lp135
I7
aI0
aI0
aI0
aa(lp136
I5
aI0
aI0
aI0
aa(lp137
I6
aI0
aI0
aI0
aa(lp138
I8
aI0
aI0
aI0
aa(lp139
I7
aI0
aI0
aI0
aa(lp140
I8
aI0
aI0
aI0
aa(lp141
I7
aI0
aI0
aI0
aa(lp142
I4
aI0
aI0
aI0
aa(lp143
I8
aI0
aI0
aI0
aa(lp144
I5
aI0
aI0
aI0
aa(lp145
I9
aI0
aI0
aI4
aa(lp146
I5
aI0
aI0
aI0
aa(lp147
I13
aI0
aI0
aI0
aa(lp148
I6
aI0
aI0
aI0
aa(lp149
I4
aI0
aI0
aI0
aa(lp150
I8
aI0
aI0
aI0
aa(lp151
I8
aI0
aI0
aI2
aa(lp152
I4
aI0
aI0
aI0
aa(lp153
I6
aI0
aI0
aI2
aa(lp154
I6
aI0
aI0
aI0
aa(lp155
I5
aI0
aI0
aI0
aa(lp156
I6
aI0
aI0
aI0
aa(lp157
I4
aI0
aI0
aI0
aa(lp158
I9
aI0
aI0
aI0
aa(lp159
I8
aI0
aI0
aI0
aa(lp160
I4
aI0
aI0
aI0
aa(lp161
I7
aI0
aI0
aI0
aa(lp162
I5
aI0
aI0
aI0
aa(lp163
I13
aI0
aI0
aI0
aa(lp164
I4
aI0
aI0
aI0
aa(lp165
I9
aI0
aI0
aI0
aa(lp166
I12
aI0
aI0
aI0
aa(lp167
I4
aI0
aI0
aI0
aa(lp168
I6
aI0
aI0
aI0
aa(lp169
I5
aI0
aI0
aI0
aa(lp170
I12
aI0
aI0
aI2
aa(lp171
I5
aI0
aI0
aI0
aa(lp172
I8
aI0
aI0
aI0
aa(lp173
I5
aI0
aI0
aI0
aa(lp174
I8
aI0
aI0
aI0
aa(lp175
I9
aI0
aI0
aI0
aa(lp176
I10
aI0
aI0
aI0
aa(lp177
I4
aI0
aI0
aI0
aa(lp178
I3
aI0
aI0
aI0
aa(lp179
I4
aI0
aI0
aI0
aa(lp180
I4
aI0
aI0
aI0
aa(lp181
I11
aI0
aI0
aI0
aa(lp182
I10
aI0
aI0
aI0
aa(lp183
I8
aI0
aI0
aI0
aa(lp184
I5
aI0
aI0
aI0
aa(lp185
I7
aI0
aI0
aI2
aa(lp186
I6
aI0
aI0
aI0
aa(lp187
I4
aI0
aI0
aI0
aa(lp188
I8
aI0
aI0
aI0
aa(lp189
I4
aI0
aI0
aI0
aa(lp190
I10
aI0
aI0
aI0
aa(lp191
I4
aI0
aI0
aI0
aa(lp192
I8
aI0
aI0
aI0
aa(lp193
I6
aI0
aI0
aI0
aa(lp194
I6
aI0
aI0
aI0
aa(lp195
I8
aI0
aI0
aI0
aa(lp196
I9
aI0
aI0
aI0
aa(lp197
I6
aI0
aI0
aI0
aa(lp198
I11
aI0
aI0
aI0
aa(lp199
I3
aI0
aI0
aI0
aa(lp200
I6
aI0
aI0
aI0
aa(lp201
I7
aI0
aI0
aI0
aa(lp202
I6
aI0
aI0
aI0
aa(lp203
I3
aI0
aI0
aI0
aa(lp204
I6
aI0
aI0
aI0
aa(lp205
I6
aI0
aI0
aI0
aa(lp206
I10
aI0
aI0
aI0
aa(lp207
I7
aI0
aI0
aI0
aa(lp208
I8
aI0
aI0
aI0
aa(lp209
I5
aI0
aI0
aI0
aa(lp210
I8
aI0
aI0
aI0
aa(lp211
I7
aI0
aI0
aI0
aa(lp212
I18
aI0
aI0
aI0
aa(lp213
I6
aI0
aI0
aI0
aa(lp214
I11
aI0
aI0
aI0
aa(lp215
I3
aI0
aI0
aI0
aa(lp216
I6
aI0
aI0
aI0
aa(lp217
I3
aI0
aI0
aI0
aa(lp218
I3
aI0
aI0
aI0
aa(lp219
I6
aI0
aI0
aI0
aa(lp220
I6
aI0
aI0
aI0
aa(lp221
I3
aI0
aI0
aI0
aa(lp222
I10
aI0
aI0
aI0
aa(lp223
I6
aI0
aI0
aI0
aa(lp224
I8
aI0
aI0
aI0
aa(lp225
I11
aI0
aI0
aI0
aa(lp226
I3
aI0
aI0
aI0
aa(lp227
I5
aI0
aI0
aI0
aa(lp228
I2
aI0
aI0
aI0
aa(lp229
I9
aI0
aI0
aI0
aa(lp230
I11
aI0
aI0
aI6
aa(lp231
I9
aI0
aI0
aI0
aa(lp232
I12
aI0
aI0
aI0
aa(lp233
I9
aI0
aI0
aI0
aa(lp234
I1
aI0
aI0
aI0
aa(lp235
I6
aI0
aI0
aI0
aa(lp236
I8
aI0
aI0
aI0
aa(lp237
I4
aI0
aI0
aI0
aa(lp238
I5
aI0
aI0
aI0
aa(lp239
I3
aI0
aI0
aI0
aa(lp240
I6
aI0
aI0
aI0
aa(lp241
I2
aI0
aI0
aI0
aa(lp242
I4
aI0
aI0
aI0
aa(lp243
I7
aI0
aI0
aI0
aa(lp244
I10
aI0
aI0
aI2
aa(lp245
I8
aI0
aI0
aI0
aa(lp246
I4
aI0
aI0
aI0
aa(lp247
I7
aI0
aI0
aI2
aa(lp248
I5
aI0
aI0
aI0
aa(lp249
I9
aI0
aI0
aI0
aa(lp250
I9
aI0
aI0
aI0
aa(lp251
I4
aI0
aI0
aI0
aa(lp252
I3
aI0
aI0
aI0
aa(lp253
I4
aI0
aI0
aI0
aa(lp254
I3
aI0
aI0
aI0
aa(lp255
I6
aI0
aI0
aI0
aa(lp256
I5
aI0
aI0
aI2
aa(lp257
I7
aI0
aI0
aI0
aa(lp258
I5
aI0
aI0
aI0
aa(lp259
I4
aI0
aI0
aI0
aa(lp260
I9
aI0
aI0
aI0
aa(lp261
I5
aI0
aI0
aI0
aa(lp262
I6
aI0
aI0
aI0
aa(lp263
I8
aI0
aI0
aI2
aa(lp264
I6
aI0
aI0
aI0
aa(lp265
I8
aI0
aI0
aI0
aa(lp266
I6
aI0
aI0
aI0
aa(lp267
I7
aI0
aI0
aI0
aa(lp268
I3
aI0
aI0
aI0
aa(lp269
I8
aI0
aI0
aI0
aa(lp270
I3
aI0
aI0
aI0
aa(lp271
I2
aI0
aI0
aI0
aa(lp272
I5
aI0
aI0
aI0
aa(lp273
I3
aI0
aI0
aI0
aa(lp274
I4
aI0
aI0
aI0
aa(lp275
I3
aI0
aI0
aI0
aa(lp276
I5
aI0
aI0
aI0
aa(lp277
I4
aI0
aI0
aI0
aa(lp278
I5
aI0
aI0
aI0
aa(lp279
I12
aI0
aI0
aI0
aa(lp280
I5
aI0
aI0
aI0
aa(lp281
I7
aI0
aI0
aI0
aa(lp282
I9
aI0
aI0
aI0
aa(lp283
I2
aI0
aI0
aI0
aa(lp284
I6
aI0
aI0
aI0
aa(lp285
I4
aI0
aI0
aI0
aa(lp286
I7
aI0
aI0
aI0
aa(lp287
I7
aI0
aI0
aI0
aa(lp288
I3
aI0
aI0
aI0
aa(lp289
I7
aI0
aI0
aI0
aa(lp290
I4
aI0
aI0
aI0
aa(lp291
I12
aI0
aI0
aI0
aa(lp292
I5
aI0
aI0
aI0
aa(lp293
I13
aI0
aI0
aI0
aa(lp294
I7
aI0
aI0
aI0
aa(lp295
I5
aI0
aI0
aI0
aa(lp296
I4
aI0
aI0
aI0
aa(lp297
I7
aI0
aI0
aI0
aa(lp298
I5
aI0
aI0
aI0
aa(lp299
I12
aI0
aI0
aI0
aa(lp300
I6
aI0
aI0
aI0
aa(lp301
I7
aI0
aI0
aI4
aa.